; Function Attrs: mustprogress nofree norecurse nosync nounwind willreturn memory(read, inaccessiblemem: none) uwtable
define noundef i32 @_ZNK6icu_7513UnicodeString14getChar32LimitEi(ptr nocapture noundef nonnull readonly align 8 dereferenceable(64) %this, i32 noundef %offset) local_unnamed_addr #15 align 2 {
entry:
  %fUnion.i.i = getelementptr inbounds i8, ptr %this, i64 8
  %0 = load i16, ptr %fUnion.i.i, align 8
  %cmp.i.i = icmp slt i16 %0, 0
  %1 = ashr i16 %0, 5
  %shr.i.i = sext i16 %1 to i32
  %fLength.i = getelementptr inbounds i8, ptr %this, i64 12
  %2 = load i32, ptr %fLength.i, align 4
  %cond.i = select i1 %cmp.i.i, i32 %2, i32 %shr.i.i
  %cmp = icmp ugt i32 %cond.i, %offset
  br i1 %cmp, label %if.then, label %return

if.then:                                          ; preds = %entry
  %cmp3 = icmp sgt i32 %offset, 0
  br i1 %cmp3, label %land.lhs.true6, label %return

land.lhs.true6:                                   ; preds = %if.then
  %3 = and i16 %0, 2
  %tobool.not.i = icmp eq i16 %3, 0
  %fArray.i = getelementptr inbounds i8, ptr %this, i64 24
  %4 = load ptr, ptr %fArray.i, align 8
  %fBuffer.i = getelementptr inbounds i8, ptr %this, i64 10
  %cond.i12 = select i1 %tobool.not.i, ptr %4, ptr %fBuffer.i
  %5 = zext nneg i32 %offset to i64
  %6 = getelementptr i16, ptr %cond.i12, i64 %5
  %arrayidx = getelementptr i8, ptr %6, i64 -2
  %7 = load i16, ptr %arrayidx, align 2
  %8 = and i16 %7, -1024
  %cmp7 = icmp eq i16 %8, -10240
  br i1 %cmp7, label %land.lhs.true8, label %return

land.lhs.true8:                                   ; preds = %land.lhs.true6
  %9 = load i16, ptr %6, align 2
  %10 = and i16 %9, -1024
  %cmp13 = icmp eq i16 %10, -9216
  %inc = zext i1 %cmp13 to i32
  %spec.select = add nuw nsw i32 %inc, %offset
  br label %return

return:                                           ; preds = %land.lhs.true8, %entry, %land.lhs.true6, %if.then
  %retval.0 = phi i32 [ %offset, %land.lhs.true6 ], [ %offset, %if.then ], [ %spec.select, %land.lhs.true8 ], [ %cond.i, %entry ]
  ret i32 %retval.0
}